Certificate:
    Data:
        Version: 1 (0x0)
        Serial Number: 4096 (0x1000)
    Signature Algorithm: sha1WithRSAEncryption
        Issuer: C=CA, ST=Quebec, L=Sherbrooke, O=Universite de Sherbrooke, OU=GEGI, CN=autorite/emailAddress=autorite@gegi
        Validity
            Not Before: Jan 18 21:58:21 2023 GMT
            Not After : Jan 18 21:58:21 2024 GMT
        Subject: C=CA, ST=Quebec, O=Universite de Sherbrooke, OU=GEGI, CN=www.hostpapa.app/emailAddress=lemj0601@usherbrooke.ca
        Subject Public Key Info:
            Public Key Algorithm: rsaEncryption
                RSA Public-Key: (2048 bit)
                Modulus:
                    00:b7:d2:75:84:de:68:36:8b:bc:f6:02:78:e0:eb:
                    2a:ff:88:fa:d1:a5:cc:3c:b9:35:ca:3b:bc:d2:62:
                    ec:c4:f9:fe:37:d1:87:3e:28:d7:ff:f3:39:0b:25:
                    c5:23:02:e3:ec:55:31:50:19:40:1a:d1:25:82:03:
                    72:d5:14:26:86:ba:6c:6d:88:9b:f9:ae:d6:d7:37:
                    f8:16:8e:7c:aa:bc:2d:59:72:8e:e4:74:e4:98:70:
                    ed:6c:b4:83:03:25:ea:22:23:88:92:70:c0:bb:93:
                    fa:da:e7:86:0b:e3:50:3b:65:ca:68:c3:42:4b:7a:
                    44:7e:85:8d:65:b7:3e:49:21:8f:d2:64:2d:0f:57:
                    9b:af:28:c0:a9:36:f2:56:c2:61:0d:ef:c9:ed:ee:
                    a6:17:35:df:98:6c:b2:ff:f1:d5:f0:08:8d:67:d0:
                    d8:fe:09:b3:88:04:54:8e:31:92:75:94:4a:eb:2c:
                    27:1b:14:14:77:e8:3f:87:45:31:82:c2:a0:b3:0f:
                    d2:e4:e6:bf:07:06:1f:87:a9:b8:26:49:c3:72:45:
                    78:0a:4a:f9:dc:74:c4:e5:da:d2:b5:72:7a:dc:6b:
                    98:ca:29:ef:29:2d:4d:79:73:fb:91:50:87:43:7f:
                    c1:01:3a:81:f2:3d:70:bb:ae:e4:fa:7e:23:e8:2c:
                    83:57
                Exponent: 65537 (0x10001)
    Signature Algorithm: sha1WithRSAEncryption
         1f:f5:07:fd:6a:33:4c:09:4e:66:aa:99:62:24:1a:91:76:7d:
         1c:91:08:16:af:81:3c:3f:f5:e5:1e:5b:de:34:5e:ee:52:14:
         b4:c9:09:3c:1c:1c:4b:0e:f4:ed:d4:54:c3:65:3a:25:ec:a0:
         89:9d:dc:23:c4:f6:f9:97:40:d6:23:70:63:4b:69:8b:72:4d:
         d6:a0:9e:0a:89:2c:cb:6b:01:a9:7f:18:5f:4e:e2:af:b3:a2:
         57:f0:8c:c3:db:f7:ad:84:f3:06:6b:e9:e7:1e:37:d4:fa:74:
         9c:52:ba:6a:0f:4a:3c:4f:dc:85:13:dd:9e:b7:a0:27:0f:0b:
         70:34:b0:5f:ff:a9:29:96:61:a7:0c:cd:a0:76:9c:5d:dc:ad:
         f4:d2:3f:31:bf:1d:d4:95:19:04:1a:39:c4:b9:2d:cb:b4:03:
         5a:69:5f:16:65:fb:38:e7:34:67:91:29:af:3d:2c:2d:99:53:
         92:af:0e:d3:85:bc:46:5b:59:4e:c4:cd:40:b8:6a:10:3f:2d:
         29:83:18:0a:ee:37:24:39:01:3a:be:e6:ae:52:08:86:0e:8a:
         5f:03:b8:ae:5c:86:83:ee:85:ac:6a:a3:f1:12:4f:83:47:85:
         8f:3b:f3:f5:f9:28:80:e8:4f:2c:93:11:b4:1d:7d:bc:61:6e:
         6a:7d:fb:bc
-----BEGIN CERTIFICATE-----
MIIDoDCCAogCAhAAMA0GCSqGSIb3DQEBBQUAMIGWMQswCQYDVQQGEwJDQTEPMA0G
A1UECAwGUXVlYmVjMRMwEQYDVQQHDApTaGVyYnJvb2tlMSEwHwYDVQQKDBhVbml2
ZXJzaXRlIGRlIFNoZXJicm9va2UxDTALBgNVBAsMBEdFR0kxETAPBgNVBAMMCGF1
dG9yaXRlMRwwGgYJKoZIhvcNAQkBFg1hdXRvcml0ZUBnZWdpMB4XDTIzMDExODIx
NTgyMVoXDTI0MDExODIxNTgyMVowgZMxCzAJBgNVBAYTAkNBMQ8wDQYDVQQIDAZR
dWViZWMxITAfBgNVBAoMGFVuaXZlcnNpdGUgZGUgU2hlcmJyb29rZTENMAsGA1UE
CwwER0VHSTEZMBcGA1UEAwwQd3d3Lmhvc3RwYXBhLmFwcDEmMCQGCSqGSIb3DQEJ
ARYXbGVtajA2MDFAdXNoZXJicm9va2UuY2EwggEiMA0GCSqGSIb3DQEBAQUAA4IB
DwAwggEKAoIBAQC30nWE3mg2i7z2Anjg6yr/iPrRpcw8uTXKO7zSYuzE+f430Yc+
KNf/8zkLJcUjAuPsVTFQGUAa0SWCA3LVFCaGumxtiJv5rtbXN/gWjnyqvC1Zco7k
dOSYcO1stIMDJeoiI4iScMC7k/ra54YL41A7Zcpow0JLekR+hY1ltz5JIY/SZC0P
V5uvKMCpNvJWwmEN78nt7qYXNd+YbLL/8dXwCI1n0Nj+CbOIBFSOMZJ1lErrLCcb
FBR36D+HRTGCwqCzD9Lk5r8HBh+HqbgmScNyRXgKSvncdMTl2tK1cnrca5jKKe8p
LU15c/uRUIdDf8EBOoHyPXC7ruT6fiPoLINXAgMBAAEwDQYJKoZIhvcNAQEFBQAD
ggEBAB/1B/1qM0wJTmaqmWIkGpF2fRyRCBavgTw/9eUeW940Xu5SFLTJCTwcHEsO
9O3UVMNlOiXsoImd3CPE9vmXQNYjcGNLaYtyTdagngqJLMtrAal/GF9O4q+zolfw
jMPb962E8wZr6eceN9T6dJxSumoPSjxP3IUT3Z63oCcPC3A0sF//qSmWYacMzaB2
nF3crfTSPzG/HdSVGQQaOcS5Lcu0A1ppXxZl+zjnNGeRKa89LC2ZU5KvDtOFvEZb
WU7EzUC4ahA/LSmDGAruNyQ5ATq+5q5SCIYOil8DuK5choPuhaxqo/EST4NHhY87
8/X5KIDoTyyTEbQdfbxhbmp9+7w=
-----END CERTIFICATE-----
