Certificate:
    Data:
        Version: 1 (0x0)
        Serial Number: 4096 (0x1000)
    Signature Algorithm: sha1WithRSAEncryption
        Issuer: C=CA, ST=Quebec, L=Sherbrooke, O=Universite de Sherbrooke, OU=GEGI, CN=autorite/emailAddress=autorite@gegi
        Validity
            Not Before: Jan 17 19:57:52 2023 GMT
            Not After : Jan 17 19:57:52 2024 GMT
        Subject: C=CA, ST=Quebec, O=Universite de Sherbrooke, OU=GEGI, CN=localhost/emailAddress=galj1704@usherbrooke.ca
        Subject Public Key Info:
            Public Key Algorithm: rsaEncryption
                Public-Key: (2048 bit)
                Modulus:
                    00:ea:15:6d:dc:c4:a5:2f:76:73:e9:ba:88:fe:9d:
                    98:d5:1c:9d:33:90:82:4b:a2:e9:d1:bc:2a:06:fe:
                    9d:f7:0a:ed:1e:19:a8:2c:73:1b:ab:df:88:92:c0:
                    fe:a7:66:bd:78:4a:e9:4e:57:65:21:13:f2:f5:77:
                    06:c8:4a:e1:07:fe:52:51:4b:79:ff:1e:4d:c7:74:
                    47:22:9e:e8:76:9f:58:07:ea:e3:5b:2a:53:3f:19:
                    0d:cf:1f:79:56:01:c3:8d:56:d0:06:ae:4d:d3:64:
                    05:ec:15:9e:d1:ef:b8:62:cd:7c:58:57:14:a3:29:
                    26:59:7e:1a:2b:d0:49:63:80:3e:b0:f7:2c:2f:eb:
                    b1:21:70:03:1c:d6:36:2f:13:e8:e2:8e:a8:b7:44:
                    d2:c3:a9:e3:45:8a:5a:49:61:1b:0f:04:e7:4c:b9:
                    57:f9:68:37:67:33:09:c4:2b:a7:c5:0a:de:6a:40:
                    ea:d0:d2:36:fc:c3:1f:9d:a9:fc:29:31:13:d9:27:
                    d8:93:cb:ec:25:eb:aa:4e:c5:c8:ef:3c:4e:a9:fe:
                    3c:2d:ae:e4:06:27:38:06:df:1f:43:2f:ba:34:9b:
                    d2:91:bf:30:bf:cf:9f:04:5e:46:73:46:32:70:85:
                    a3:bf:64:78:fd:4c:b8:14:0f:88:23:50:f5:00:86:
                    d0:67
                Exponent: 65537 (0x10001)
    Signature Algorithm: sha1WithRSAEncryption
         56:50:52:5a:95:e1:77:47:33:bc:9c:c7:94:a2:78:85:e4:b7:
         2b:62:95:a3:a9:38:ee:3b:6d:6c:9c:c4:22:8d:c6:2f:4a:7d:
         87:57:6a:8e:bc:54:5b:41:76:5d:5e:70:c5:5f:a0:11:b1:82:
         f3:1a:0f:4a:98:97:ed:95:fa:28:9e:31:c2:7b:62:d2:59:e8:
         27:08:70:65:7e:bd:88:8d:32:2e:43:27:3f:6e:27:71:22:ed:
         47:c6:92:5a:6e:a5:6f:29:8c:cf:fa:59:a1:6c:8a:96:1e:f7:
         fb:3c:3d:79:d4:81:b9:b5:50:83:36:38:9c:25:31:a3:fd:2d:
         df:cb:fc:4d:28:8a:2b:07:89:24:6a:a9:21:01:ef:ac:5c:4a:
         eb:27:be:98:4e:99:02:b5:5d:2e:9b:f1:6e:b0:2e:74:6c:44:
         2c:97:4a:be:69:e1:17:6c:f9:61:21:e9:3f:92:79:f4:d0:5f:
         b2:af:cc:21:e8:7a:90:34:6b:99:99:1a:7c:ad:d4:98:3e:99:
         d2:b1:ec:05:52:88:7b:aa:41:cc:0e:8e:88:02:e0:aa:59:39:
         75:ab:9b:2a:2d:30:11:be:81:7e:b0:38:f1:f6:ce:d7:a3:f4:
         ce:4a:c2:28:9e:83:0b:c6:0a:90:8a:8f:45:c9:6f:48:6b:25:
         67:6e:3e:11
-----BEGIN CERTIFICATE-----
MIIDmTCCAoECAhAAMA0GCSqGSIb3DQEBBQUAMIGWMQswCQYDVQQGEwJDQTEPMA0G
A1UECAwGUXVlYmVjMRMwEQYDVQQHDApTaGVyYnJvb2tlMSEwHwYDVQQKDBhVbml2
ZXJzaXRlIGRlIFNoZXJicm9va2UxDTALBgNVBAsMBEdFR0kxETAPBgNVBAMMCGF1
dG9yaXRlMRwwGgYJKoZIhvcNAQkBFg1hdXRvcml0ZUBnZWdpMB4XDTIzMDExNzE5
NTc1MloXDTI0MDExNzE5NTc1MlowgYwxCzAJBgNVBAYTAkNBMQ8wDQYDVQQIDAZR
dWViZWMxITAfBgNVBAoMGFVuaXZlcnNpdGUgZGUgU2hlcmJyb29rZTENMAsGA1UE
CwwER0VHSTESMBAGA1UEAwwJbG9jYWxob3N0MSYwJAYJKoZIhvcNAQkBFhdnYWxq
MTcwNEB1c2hlcmJyb29rZS5jYTCCASIwDQYJKoZIhvcNAQEBBQADggEPADCCAQoC
ggEBAOoVbdzEpS92c+m6iP6dmNUcnTOQgkui6dG8Kgb+nfcK7R4ZqCxzG6vfiJLA
/qdmvXhK6U5XZSET8vV3BshK4Qf+UlFLef8eTcd0RyKe6HafWAfq41sqUz8ZDc8f
eVYBw41W0AauTdNkBewVntHvuGLNfFhXFKMpJll+GivQSWOAPrD3LC/rsSFwAxzW
Ni8T6OKOqLdE0sOp40WKWklhGw8E50y5V/loN2czCcQrp8UK3mpA6tDSNvzDH52p
/CkxE9kn2JPL7CXrqk7FyO88Tqn+PC2u5AYnOAbfH0MvujSb0pG/ML/PnwReRnNG
MnCFo79keP1MuBQPiCNQ9QCG0GcCAwEAATANBgkqhkiG9w0BAQUFAAOCAQEAVlBS
WpXhd0czvJzHlKJ4heS3K2KVo6k47jttbJzEIo3GL0p9h1dqjrxUW0F2XV5wxV+g
EbGC8xoPSpiX7ZX6KJ4xwnti0lnoJwhwZX69iI0yLkMnP24ncSLtR8aSWm6lbymM
z/pZoWyKlh73+zw9edSBubVQgzY4nCUxo/0t38v8TSiKKweJJGqpIQHvrFxK6ye+
mE6ZArVdLpvxbrAudGxELJdKvmnhF2z5YSHpP5J59NBfsq/MIeh6kDRrmZkafK3U
mD6Z0rHsBVKIe6pBzA6OiALgqlk5daubKi0wEb6BfrA48fbO16P0zkrCKJ6DC8YK
kIqPRclvSGslZ24+EQ==
-----END CERTIFICATE-----
