Certificate:
    Data:
        Version: 1 (0x0)
        Serial Number: 4097 (0x1001)
    Signature Algorithm: sha1WithRSAEncryption
        Issuer: C=CA, ST=Quebec, L=Sherbrooke, O=Universite de Sherbrooke, OU=GEGI, CN=autorite/emailAddress=autorite@gegi
        Validity
            Not Before: Jan 18 21:58:36 2023 GMT
            Not After : Jan 18 21:58:36 2024 GMT
        Subject: C=CA, ST=Quebec, O=Universite de Sherbrooke, OU=GEGI, CN=www.hostpapa.app/emailAddress=lemj0601@usherbrooke.ca
        Subject Public Key Info:
            Public Key Algorithm: rsaEncryption
                RSA Public-Key: (2048 bit)
                Modulus:
                    00:b7:63:dc:31:e2:18:9c:a5:17:23:ee:b7:0e:ba:
                    64:55:69:b0:86:0a:f5:47:0c:d3:f2:7e:1c:16:66:
                    07:03:b0:e0:52:f5:4a:b6:a9:d5:4a:c1:72:98:4f:
                    c6:91:6b:e3:0f:32:5e:f7:79:62:b9:fc:17:da:c4:
                    e5:52:d3:5e:88:39:1c:6e:d9:4e:ca:71:9d:52:af:
                    b2:c0:e9:dc:9d:28:0d:1b:2f:43:1a:f8:47:5d:52:
                    eb:a3:13:17:2a:93:79:d0:74:b7:5d:1f:86:38:7f:
                    14:5a:4c:19:9d:72:af:7a:1a:ed:fc:0e:62:f0:c6:
                    93:7e:23:ca:ce:ba:22:91:a1:25:e0:ee:f9:83:fc:
                    e1:08:a5:e9:35:b2:06:07:48:24:2d:49:38:4f:29:
                    b7:af:9d:b4:ee:b7:97:3e:8d:20:01:c5:45:62:fe:
                    99:b1:83:ad:01:ab:0b:3f:f0:31:35:cf:37:cc:3b:
                    20:69:e3:ed:77:08:d0:31:30:99:fc:38:50:3a:cd:
                    ff:03:87:ce:ae:72:5a:06:29:f9:82:9e:b0:69:31:
                    a6:cb:b1:1d:39:2b:d1:7a:35:f2:0e:75:19:8d:52:
                    6e:51:9e:9a:1f:9d:a3:40:de:43:5c:82:16:e3:bb:
                    21:2d:ac:01:53:b6:bd:51:ed:c5:af:17:c2:ef:41:
                    0c:8f
                Exponent: 65537 (0x10001)
    Signature Algorithm: sha1WithRSAEncryption
         7b:df:8c:7c:3d:6b:c0:e6:96:ac:86:14:5d:51:c1:df:79:cb:
         cf:ef:78:eb:cf:6c:24:5d:9a:02:45:c5:af:2a:86:af:7a:92:
         5e:c4:33:a2:ef:3c:60:c9:36:9d:43:34:7a:61:3b:25:0e:80:
         90:b2:88:b7:26:ae:e9:15:9e:ae:58:de:b5:e1:fc:04:d0:f0:
         5b:3c:59:a0:68:c9:72:b1:c2:ba:de:53:f2:7b:fc:4e:f5:e5:
         fc:7b:db:cc:44:5d:fe:fa:a2:8b:5f:88:73:ad:4f:0f:9a:ae:
         d4:fb:cd:12:01:13:4a:fe:21:f4:d3:e5:89:55:99:d2:45:5a:
         f1:aa:7c:59:3e:cb:2a:ac:b6:f3:83:fe:c0:31:69:a9:81:cf:
         ce:51:29:f7:4d:32:5e:2f:24:a3:79:d9:09:eb:97:ae:7f:f2:
         20:cf:f3:73:28:b8:41:28:44:c6:de:32:34:24:81:c7:99:af:
         f1:8c:73:27:d3:8f:73:5c:ac:d8:ac:c0:47:95:99:29:ed:85:
         bc:63:9c:be:1b:f1:39:d3:cf:29:5b:74:77:e6:b9:f2:f9:12:
         ac:db:ca:48:d7:4d:5c:f5:74:fc:1f:9a:91:12:6a:c1:af:2a:
         16:22:af:d8:2c:57:0e:55:27:0b:ea:fc:d2:37:da:95:69:7d:
         9a:bb:0b:07
-----BEGIN CERTIFICATE-----
MIIDoDCCAogCAhABMA0GCSqGSIb3DQEBBQUAMIGWMQswCQYDVQQGEwJDQTEPMA0G
A1UECAwGUXVlYmVjMRMwEQYDVQQHDApTaGVyYnJvb2tlMSEwHwYDVQQKDBhVbml2
ZXJzaXRlIGRlIFNoZXJicm9va2UxDTALBgNVBAsMBEdFR0kxETAPBgNVBAMMCGF1
dG9yaXRlMRwwGgYJKoZIhvcNAQkBFg1hdXRvcml0ZUBnZWdpMB4XDTIzMDExODIx
NTgzNloXDTI0MDExODIxNTgzNlowgZMxCzAJBgNVBAYTAkNBMQ8wDQYDVQQIDAZR
dWViZWMxITAfBgNVBAoMGFVuaXZlcnNpdGUgZGUgU2hlcmJyb29rZTENMAsGA1UE
CwwER0VHSTEZMBcGA1UEAwwQd3d3Lmhvc3RwYXBhLmFwcDEmMCQGCSqGSIb3DQEJ
ARYXbGVtajA2MDFAdXNoZXJicm9va2UuY2EwggEiMA0GCSqGSIb3DQEBAQUAA4IB
DwAwggEKAoIBAQC3Y9wx4hicpRcj7rcOumRVabCGCvVHDNPyfhwWZgcDsOBS9Uq2
qdVKwXKYT8aRa+MPMl73eWK5/BfaxOVS016IORxu2U7KcZ1Sr7LA6dydKA0bL0Ma
+EddUuujExcqk3nQdLddH4Y4fxRaTBmdcq96Gu38DmLwxpN+I8rOuiKRoSXg7vmD
/OEIpek1sgYHSCQtSThPKbevnbTut5c+jSABxUVi/pmxg60Bqws/8DE1zzfMOyBp
4+13CNAxMJn8OFA6zf8Dh86ucloGKfmCnrBpMabLsR05K9F6NfIOdRmNUm5Rnpof
naNA3kNcghbjuyEtrAFTtr1R7cWvF8LvQQyPAgMBAAEwDQYJKoZIhvcNAQEFBQAD
ggEBAHvfjHw9a8DmlqyGFF1Rwd95y8/veOvPbCRdmgJFxa8qhq96kl7EM6LvPGDJ
Np1DNHphOyUOgJCyiLcmrukVnq5Y3rXh/ATQ8Fs8WaBoyXKxwrreU/J7/E715fx7
28xEXf76ootfiHOtTw+artT7zRIBE0r+IfTT5YlVmdJFWvGqfFk+yyqstvOD/sAx
aamBz85RKfdNMl4vJKN52Qnrl65/8iDP83MouEEoRMbeMjQkgceZr/GMcyfTj3Nc
rNiswEeVmSnthbxjnL4b8TnTzylbdHfmufL5EqzbykjXTVz1dPwfmpESasGvKhYi
r9gsVw5VJwvq/NI32pVpfZq7Cwc=
-----END CERTIFICATE-----
