Certificate:
    Data:
        Version: 1 (0x0)
        Serial Number: 4097 (0x1001)
    Signature Algorithm: sha1WithRSAEncryption
        Issuer: C=CA, ST=Quebec, L=Sherbrooke, O=Universite de Sherbrooke, OU=GEGI, CN=autorite/emailAddress=autorite@gegi
        Validity
            Not Before: Jan 17 19:59:12 2023 GMT
            Not After : Jan 17 19:59:12 2024 GMT
        Subject: C=CA, ST=Quebec, O=Universite de Sherbrooke, OU=GEGI, CN=localhost/emailAddress=galj1704@usherbrooke.ca
        Subject Public Key Info:
            Public Key Algorithm: rsaEncryption
                Public-Key: (2048 bit)
                Modulus:
                    00:c7:c6:a0:06:0e:1b:5f:f6:8e:f5:90:ff:3f:2c:
                    84:6c:45:55:90:0c:65:f3:43:1b:00:94:00:73:7f:
                    d2:bb:49:f6:9a:16:3a:d2:e3:94:84:08:23:c5:5d:
                    bd:e4:f6:0a:89:c2:28:0a:40:77:10:fb:e9:23:75:
                    21:0b:0c:bc:75:88:3a:59:64:bc:58:2d:01:d9:46:
                    82:53:fd:28:32:73:a3:5b:56:5b:ee:2c:1d:dc:7b:
                    4c:62:cc:00:0d:63:93:af:3e:e6:a6:93:76:ac:bb:
                    25:e0:69:74:a8:1a:19:0e:35:6a:27:f0:50:51:d7:
                    63:15:1e:98:22:ff:a4:35:d1:5c:55:70:d2:44:d7:
                    1f:45:2a:b3:97:9a:78:f7:27:e6:18:24:47:d8:50:
                    bb:1c:15:08:08:6b:52:36:11:dc:46:e8:cf:35:85:
                    77:82:b3:b1:72:04:99:4f:31:a0:54:7e:20:33:09:
                    34:23:30:7f:60:b4:89:97:52:aa:b7:15:73:98:b5:
                    51:94:3f:3b:57:52:61:cc:6f:6d:39:d2:51:2c:09:
                    b5:86:96:6b:21:6b:06:9e:98:d9:27:e7:aa:9b:cb:
                    0d:27:9f:e5:0b:74:f1:9e:3a:a0:c8:72:c6:14:50:
                    aa:0e:4f:4c:e1:be:c8:78:f6:d8:00:62:30:85:cd:
                    27:37
                Exponent: 65537 (0x10001)
    Signature Algorithm: sha1WithRSAEncryption
         0b:c2:a1:99:6d:0e:a1:59:2e:41:f5:76:f5:d5:09:c7:a7:2d:
         46:49:bc:87:4c:c4:a5:50:fe:03:d9:8e:86:5c:28:48:c5:8d:
         cb:53:29:16:33:f0:ca:3c:61:00:2c:4c:1d:9f:99:35:59:1e:
         55:50:a3:73:3a:36:a5:98:a0:97:c6:b8:84:36:ba:b5:ba:a6:
         12:89:cb:f3:28:62:34:f3:74:83:bc:b0:02:77:bc:b3:d1:e8:
         ed:e3:d8:f4:87:e8:96:b6:33:a8:db:13:52:7d:78:e4:b6:9f:
         76:9c:85:a9:96:65:7e:ef:87:58:e4:63:27:5e:f3:d7:40:36:
         e8:91:36:22:4c:d6:73:fc:ec:c2:24:62:fa:8d:4a:27:6c:f6:
         74:9f:a7:f9:92:0e:47:91:e5:3b:c3:a3:60:e8:e9:22:64:5c:
         c2:8c:d6:d3:d8:bf:85:c1:9d:53:a8:a1:87:66:be:4a:a7:04:
         bb:f0:dc:ca:ae:02:81:da:2d:29:9a:d0:a1:9b:50:12:ac:2f:
         97:0a:a8:f6:7f:76:ba:3d:7e:f9:78:6f:fd:4b:d9:70:b4:ed:
         44:2f:3b:74:8f:ff:c9:52:76:f5:d6:d4:7d:de:cf:20:d2:5b:
         39:88:2a:ae:f2:b3:6b:40:cf:2c:1d:6c:67:dd:b3:8d:1c:f0:
         fc:f6:0f:31
-----BEGIN CERTIFICATE-----
MIIDmTCCAoECAhABMA0GCSqGSIb3DQEBBQUAMIGWMQswCQYDVQQGEwJDQTEPMA0G
A1UECAwGUXVlYmVjMRMwEQYDVQQHDApTaGVyYnJvb2tlMSEwHwYDVQQKDBhVbml2
ZXJzaXRlIGRlIFNoZXJicm9va2UxDTALBgNVBAsMBEdFR0kxETAPBgNVBAMMCGF1
dG9yaXRlMRwwGgYJKoZIhvcNAQkBFg1hdXRvcml0ZUBnZWdpMB4XDTIzMDExNzE5
NTkxMloXDTI0MDExNzE5NTkxMlowgYwxCzAJBgNVBAYTAkNBMQ8wDQYDVQQIDAZR
dWViZWMxITAfBgNVBAoMGFVuaXZlcnNpdGUgZGUgU2hlcmJyb29rZTENMAsGA1UE
CwwER0VHSTESMBAGA1UEAwwJbG9jYWxob3N0MSYwJAYJKoZIhvcNAQkBFhdnYWxq
MTcwNEB1c2hlcmJyb29rZS5jYTCCASIwDQYJKoZIhvcNAQEBBQADggEPADCCAQoC
ggEBAMfGoAYOG1/2jvWQ/z8shGxFVZAMZfNDGwCUAHN/0rtJ9poWOtLjlIQII8Vd
veT2ConCKApAdxD76SN1IQsMvHWIOllkvFgtAdlGglP9KDJzo1tWW+4sHdx7TGLM
AA1jk68+5qaTdqy7JeBpdKgaGQ41aifwUFHXYxUemCL/pDXRXFVw0kTXH0Uqs5ea
ePcn5hgkR9hQuxwVCAhrUjYR3EbozzWFd4KzsXIEmU8xoFR+IDMJNCMwf2C0iZdS
qrcVc5i1UZQ/O1dSYcxvbTnSUSwJtYaWayFrBp6Y2SfnqpvLDSef5Qt08Z46oMhy
xhRQqg5PTOG+yHj22ABiMIXNJzcCAwEAATANBgkqhkiG9w0BAQUFAAOCAQEAC8Kh
mW0OoVkuQfV29dUJx6ctRkm8h0zEpVD+A9mOhlwoSMWNy1MpFjPwyjxhACxMHZ+Z
NVkeVVCjczo2pZigl8a4hDa6tbqmEonL8yhiNPN0g7ywAne8s9Ho7ePY9IfolrYz
qNsTUn145LafdpyFqZZlfu+HWORjJ17z10A26JE2IkzWc/zswiRi+o1KJ2z2dJ+n
+ZIOR5HlO8OjYOjpImRcwozW09i/hcGdU6ihh2a+SqcEu/Dcyq4CgdotKZrQoZtQ
Eqwvlwqo9n92uj1++Xhv/UvZcLTtRC87dI//yVJ29dbUfd7PINJbOYgqrvKza0DP
LB1sZ92zjRzw/PYPMQ==
-----END CERTIFICATE-----
